; Function Attrs: nofree norecurse nosync nounwind memory(argmem: readwrite) uwtable
define hidden void @lexbor_str_data_to_lowercase(ptr nocapture noundef writeonly %0, ptr nocapture noundef readonly %1, i64 noundef %2) local_unnamed_addr #11 {
  %.not5 = icmp eq i64 %2, 0
  br i1 %.not5, label %._crit_edge, label %.lr.ph

.lr.ph:                                           ; preds = %3, %.lr.ph
  %.06 = phi i64 [ %4, %.lr.ph ], [ %2, %3 ]
  %4 = add i64 %.06, -1
  %5 = getelementptr inbounds i8, ptr %1, i64 %4
  %6 = load i8, ptr %5, align 1
  %7 = zext i8 %6 to i64
  %8 = getelementptr inbounds [256 x i8], ptr @lexbor_str_res_map_lowercase, i64 0, i64 %7
  %9 = load i8, ptr %8, align 1
  %10 = getelementptr inbounds i8, ptr %0, i64 %4
  store i8 %9, ptr %10, align 1
  %.not = icmp eq i64 %4, 0
  br i1 %.not, label %._crit_edge, label %.lr.ph

._crit_edge:                                      ; preds = %.lr.ph, %3
  ret void
}